target datalayout = "e-m:e-p270:32:32-p271:32:32-p272:64:64-i64:64-i128:128-f80:128-n8:16:32:64-S128"
target triple = "x86_64-pc-linux-gnu"

%union.LWLockPadded = type { %struct.LWLock, [112 x i8] }
%struct.LWLock = type { i16, %struct.pg_atomic_uint32, %struct.proclist_head }
%struct.pg_atomic_uint32 = type { i32 }
%struct.proclist_head = type { i32, i32 }
%struct.dlist_head = type { %struct.dlist_node }
%struct.dlist_node = type { ptr, ptr }
%struct.SERIALIZABLEXACT = type { %struct.VirtualTransactionId, i64, i64, %union.anon, %struct.dlist_head, %struct.dlist_head, %struct.dlist_head, %struct.dlist_node, %struct.dlist_node, %struct.LWLock, %struct.dlist_head, i32, i32, i32, i32, i32, i32 }
%struct.VirtualTransactionId = type { i32, i32 }
%union.anon = type { i64 }

@MainLWLockArray = external global ptr, align 8
@.str.7 = private unnamed_addr constant [46 x i8] c"cannot use serializable mode in a hot standby\00", align 1
@.str.8 = private unnamed_addr constant [58 x i8] c"\22default_transaction_isolation\22 is set to \22serializable\22.\00", align 1
@.str.9 = private unnamed_addr constant [91 x i8] c"You can use \22SET default_transaction_isolation = 'repeatable read'\22 to change the default.\00", align 1
@.str.10 = private unnamed_addr constant [12 x i8] c"predicate.c\00", align 1
@__func__.GetSerializableTransactionSnapshot = private unnamed_addr constant [35 x i8] c"GetSerializableTransactionSnapshot\00", align 1
@XactReadOnly = external global i8, align 1
@XactDeferrable = external global i8, align 1
@MySerializableXact = internal global ptr null, align 8
@.str.25 = private unnamed_addr constant [49 x i8] c"deferrable snapshot was unsafe; trying a new one\00", align 1
@__func__.GetSafeSnapshot = private unnamed_addr constant [16 x i8] c"GetSafeSnapshot\00", align 1

; Function Attrs: inlinehint nounwind uwtable
define internal zeroext i1 @dlist_is_empty(ptr noundef %0) #3 {
  %2 = alloca ptr, align 8
  store ptr %0, ptr %2, align 8
  %3 = load ptr, ptr %2, align 8
  %4 = getelementptr inbounds nuw %struct.dlist_head, ptr %3, i32 0, i32 0
  %5 = getelementptr inbounds nuw %struct.dlist_node, ptr %4, i32 0, i32 1
  %6 = load ptr, ptr %5, align 8
  %7 = icmp eq ptr %6, null
  br i1 %7, label %16, label %8

8:                                                ; preds = %1
  %9 = load ptr, ptr %2, align 8
  %10 = getelementptr inbounds nuw %struct.dlist_head, ptr %9, i32 0, i32 0
  %11 = getelementptr inbounds nuw %struct.dlist_node, ptr %10, i32 0, i32 1
  %12 = load ptr, ptr %11, align 8
  %13 = load ptr, ptr %2, align 8
  %14 = getelementptr inbounds nuw %struct.dlist_head, ptr %13, i32 0, i32 0
  %15 = icmp eq ptr %12, %14
  br label %16

16:                                               ; preds = %8, %1
  %17 = phi i1 [ true, %1 ], [ %15, %8 ]
  ret i1 %17
}

; Function Attrs: nounwind uwtable
define internal ptr @GetSafeSnapshot(ptr noundef %0) #0 {
  %2 = alloca ptr, align 8
  %3 = alloca ptr, align 8
  %4 = alloca ptr, align 8
  %5 = alloca i32, align 4
  store ptr %0, ptr %3, align 8
  call void @llvm.lifetime.start.p0(i64 8, ptr %4) #10
  br label %6

6:                                                ; preds = %67, %1
  br label %7

7:                                                ; preds = %6
  %8 = load ptr, ptr %3, align 8
  %9 = call ptr @GetSerializableTransactionSnapshotInt(ptr noundef %8, ptr noundef null, i32 noundef -1)
  store ptr %9, ptr %4, align 8
  %10 = load ptr, ptr @MySerializableXact, align 8
  %11 = icmp eq ptr %10, null
  br i1 %11, label %12, label %14

12:                                               ; preds = %7
  %13 = load ptr, ptr %4, align 8
  store ptr %13, ptr %2, align 8
  store i32 1, ptr %5, align 4
  br label %70

14:                                               ; preds = %7
  %15 = load ptr, ptr @MainLWLockArray, align 8
  %16 = getelementptr inbounds %union.LWLockPadded, ptr %15, i64 28
  %17 = call zeroext i1 @LWLockAcquire(ptr noundef %16, i32 noundef 0)
  %18 = load ptr, ptr @MySerializableXact, align 8
  %19 = getelementptr inbounds nuw %struct.SERIALIZABLEXACT, ptr %18, i32 0, i32 14
  %20 = load i32, ptr %19, align 4
  %21 = or i32 %20, 64
  store i32 %21, ptr %19, align 4
  br label %22

22:                                               ; preds = %35, %14
  %23 = load ptr, ptr @MySerializableXact, align 8
  %24 = getelementptr inbounds nuw %struct.SERIALIZABLEXACT, ptr %23, i32 0, i32 10
  %25 = call zeroext i1 @dlist_is_empty(ptr noundef %24)
  br i1 %25, label %32, label %26

26:                                               ; preds = %22
  %27 = load ptr, ptr @MySerializableXact, align 8
  %28 = getelementptr inbounds nuw %struct.SERIALIZABLEXACT, ptr %27, i32 0, i32 14
  %29 = load i32, ptr %28, align 4
  %30 = and i32 %29, 256
  %31 = icmp ne i32 %30, 0
  br label %32

32:                                               ; preds = %26, %22
  %33 = phi i1 [ true, %22 ], [ %31, %26 ]
  %34 = xor i1 %33, true
  br i1 %34, label %35, label %41

35:                                               ; preds = %32
  %36 = load ptr, ptr @MainLWLockArray, align 8
  %37 = getelementptr inbounds %union.LWLockPadded, ptr %36, i64 28
  call void @LWLockRelease(ptr noundef %37)
  call void @ProcWaitForSignal(i32 noundef 134217779)
  %38 = load ptr, ptr @MainLWLockArray, align 8
  %39 = getelementptr inbounds %union.LWLockPadded, ptr %38, i64 28
  %40 = call zeroext i1 @LWLockAcquire(ptr noundef %39, i32 noundef 0)
  br label %22, !llvm.loop !14

41:                                               ; preds = %32
  %42 = load ptr, ptr @MySerializableXact, align 8
  %43 = getelementptr inbounds nuw %struct.SERIALIZABLEXACT, ptr %42, i32 0, i32 14
  %44 = load i32, ptr %43, align 4
  %45 = and i32 %44, -65
  store i32 %45, ptr %43, align 4
  %46 = load ptr, ptr @MySerializableXact, align 8
  %47 = getelementptr inbounds nuw %struct.SERIALIZABLEXACT, ptr %46, i32 0, i32 14
  %48 = load i32, ptr %47, align 4
  %49 = and i32 %48, 256
  %50 = icmp ne i32 %49, 0
  br i1 %50, label %54, label %51

51:                                               ; preds = %41
  %52 = load ptr, ptr @MainLWLockArray, align 8
  %53 = getelementptr inbounds %union.LWLockPadded, ptr %52, i64 28
  call void @LWLockRelease(ptr noundef %53)
  br label %68

54:                                               ; preds = %41
  %55 = load ptr, ptr @MainLWLockArray, align 8
  %56 = getelementptr inbounds %union.LWLockPadded, ptr %55, i64 28
  call void @LWLockRelease(ptr noundef %56)
  br label %57

57:                                               ; preds = %54
  br i1 false, label %58, label %60

58:                                               ; preds = %57
  %59 = call zeroext i1 @errstart_cold(i32 noundef 13, ptr noundef null) #11
  br i1 %59, label %62, label %65

60:                                               ; preds = %57
  %61 = call zeroext i1 @errstart(i32 noundef 13, ptr noundef null)
  br i1 %61, label %62, label %65

62:                                               ; preds = %60, %58
  %63 = call i32 @errcode(i32 noundef 16777220)
  %64 = call i32 (ptr, ...) @errmsg_internal(ptr noundef @.str.25)
  call void @errfinish(ptr noundef @.str.10, i32 noundef 1595, ptr noundef @__func__.GetSafeSnapshot)
  br label %65

65:                                               ; preds = %62, %60, %58
  br label %66

66:                                               ; preds = %65
  br label %67

67:                                               ; preds = %66
  call void @ReleasePredicateLocks(i1 noundef zeroext false, i1 noundef zeroext false)
  br label %6

68:                                               ; preds = %51
  call void @ReleasePredicateLocks(i1 noundef zeroext false, i1 noundef zeroext true)
  %69 = load ptr, ptr %4, align 8
  store ptr %69, ptr %2, align 8
  store i32 1, ptr %5, align 4
  br label %70

70:                                               ; preds = %68, %12
  call void @llvm.lifetime.end.p0(i64 8, ptr %4) #10
  %71 = load ptr, ptr %2, align 8
  ret ptr %71
}

; Function Attrs: nounwind uwtable
define dso_local ptr @GetSerializableTransactionSnapshot(ptr noundef %0) #0 {
  %2 = alloca ptr, align 8
  %3 = alloca ptr, align 8
  store ptr %0, ptr %3, align 8
  %4 = call zeroext i1 @RecoveryInProgress()
  br i1 %4, label %5, label %18

5:                                                ; preds = %1
  br label %6

6:                                                ; preds = %5
  br i1 true, label %7, label %9

7:                                                ; preds = %6
  %8 = call zeroext i1 @errstart_cold(i32 noundef 21, ptr noundef null) #11
  br i1 %8, label %11, label %16

9:                                                ; preds = %6
  %10 = call zeroext i1 @errstart(i32 noundef 21, ptr noundef null)
  br i1 %10, label %11, label %16

11:                                               ; preds = %9, %7
  %12 = call i32 @errcode(i32 noundef 1088)
  %13 = call i32 (ptr, ...) @errmsg(ptr noundef @.str.7)
  %14 = call i32 (ptr, ...) @errdetail(ptr noundef @.str.8)
  %15 = call i32 (ptr, ...) @errhint(ptr noundef @.str.9)
  call void @errfinish(ptr noundef @.str.10, i32 noundef 1687, ptr noundef @__func__.GetSerializableTransactionSnapshot)
  br label %16

16:                                               ; preds = %11, %9, %7
  unreachable

17:                                               ; No predecessors!
  br label %18

18:                                               ; preds = %17, %1
  %19 = load i8, ptr @XactReadOnly, align 1, !range !4, !noundef !5
  %20 = trunc i8 %19 to i1
  br i1 %20, label %21, label %27

21:                                               ; preds = %18
  %22 = load i8, ptr @XactDeferrable, align 1, !range !4, !noundef !5
  %23 = trunc i8 %22 to i1
  br i1 %23, label %24, label %27

24:                                               ; preds = %21
  %25 = load ptr, ptr %3, align 8
  %26 = call ptr @GetSafeSnapshot(ptr noundef %25)
  store ptr %26, ptr %2, align 8
  br label %30

27:                                               ; preds = %21, %18
  %28 = load ptr, ptr %3, align 8
  %29 = call ptr @GetSerializableTransactionSnapshotInt(ptr noundef %28, ptr noundef null, i32 noundef -1)
  store ptr %29, ptr %2, align 8
  br label %30

30:                                               ; preds = %27, %24
  %31 = load ptr, ptr %2, align 8
  ret ptr %31
}