; Function Attrs: nounwind uwtable
define dso_local ptr @GetSerializableTransactionSnapshot(ptr noundef %0) local_unnamed_addr #0 {
  %2 = tail call zeroext i1 @RecoveryInProgress() #12
  br i1 %2, label %3, label %9

3:                                                ; preds = %1
  %4 = tail call zeroext i1 @errstart_cold(i32 noundef 21, ptr noundef null) #13
  tail call void @llvm.assume(i1 %4)
  %5 = tail call i32 @errcode(i32 noundef 1088) #12
  %6 = tail call i32 (ptr, ...) @errmsg(ptr noundef nonnull @.str.7) #12
  %7 = tail call i32 (ptr, ...) @errdetail(ptr noundef nonnull @.str.8) #12
  %8 = tail call i32 (ptr, ...) @errhint(ptr noundef nonnull @.str.9) #12
  tail call void @errfinish(ptr noundef nonnull @.str.10, i32 noundef 1687, ptr noundef nonnull @__func__.GetSerializableTransactionSnapshot) #12
  unreachable

9:                                                ; preds = %1
  %10 = load i8, ptr @XactReadOnly, align 1, !range !4, !noundef !5
  %11 = trunc nuw i8 %10 to i1
  br i1 %11, label %12, label %65

12:                                               ; preds = %9
  %13 = load i8, ptr @XactDeferrable, align 1, !range !4, !noundef !5
  %14 = trunc nuw i8 %13 to i1
  br i1 %14, label %15, label %65

15:                                               ; preds = %12
  %16 = tail call fastcc ptr @GetSerializableTransactionSnapshotInt(ptr noundef %0, ptr noundef null, i32 noundef -1)
  %17 = load ptr, ptr @MySerializableXact, align 8
  %18 = icmp eq ptr %17, null
  br i1 %18, label %GetSafeSnapshot.exit, label %.lr.ph9.i

.lr.ph9.i:                                        ; preds = %15, %61
  %19 = phi ptr [ %62, %61 ], [ %16, %15 ]
  %20 = load ptr, ptr @MainLWLockArray, align 8
  %21 = getelementptr inbounds nuw i8, ptr %20, i64 3584
  %22 = tail call zeroext i1 @LWLockAcquire(ptr noundef nonnull %21, i32 noundef 0) #12
  %23 = load ptr, ptr @MySerializableXact, align 8
  %24 = getelementptr inbounds nuw i8, ptr %23, i64 156
  %25 = load i32, ptr %24, align 4
  %26 = or i32 %25, 64
  store i32 %26, ptr %24, align 4
  %27 = getelementptr inbounds nuw i8, ptr %23, i64 128
  %28 = getelementptr inbounds nuw i8, ptr %23, i64 136
  %29 = load ptr, ptr %28, align 8
  %30 = icmp eq ptr %29, null
  %31 = icmp eq ptr %29, %27
  %spec.select.i6.i = or i1 %30, %31
  br i1 %spec.select.i6.i, label %.critedge.i, label %.lr.ph.i

.lr.ph.i:                                         ; preds = %.lr.ph9.i, %37
  %32 = phi ptr [ %43, %37 ], [ %23, %.lr.ph9.i ]
  %33 = getelementptr inbounds nuw i8, ptr %32, i64 156
  %34 = load i32, ptr %33, align 4
  %35 = and i32 %34, 256
  %36 = icmp eq i32 %35, 0
  br i1 %36, label %37, label %.critedge.i

37:                                               ; preds = %.lr.ph.i
  %38 = load ptr, ptr @MainLWLockArray, align 8
  %39 = getelementptr inbounds nuw i8, ptr %38, i64 3584
  tail call void @LWLockRelease(ptr noundef nonnull %39) #12
  tail call void @ProcWaitForSignal(i32 noundef 134217779) #12
  %40 = load ptr, ptr @MainLWLockArray, align 8
  %41 = getelementptr inbounds nuw i8, ptr %40, i64 3584
  %42 = tail call zeroext i1 @LWLockAcquire(ptr noundef nonnull %41, i32 noundef 0) #12
  %43 = load ptr, ptr @MySerializableXact, align 8
  %44 = getelementptr inbounds nuw i8, ptr %43, i64 128
  %45 = getelementptr inbounds nuw i8, ptr %43, i64 136
  %46 = load ptr, ptr %45, align 8
  %47 = icmp eq ptr %46, null
  %48 = icmp eq ptr %46, %44
  %spec.select.i.i = or i1 %47, %48
  br i1 %spec.select.i.i, label %..critedge.loopexit_crit_edge.i, label %.lr.ph.i, !llvm.loop !14

..critedge.loopexit_crit_edge.i:                  ; preds = %37
  %.phi.trans.insert.phi.trans.insert.i = getelementptr inbounds nuw i8, ptr %43, i64 156
  %.pre.pre.i = load i32, ptr %.phi.trans.insert.phi.trans.insert.i, align 4
  br label %.critedge.i

.critedge.i:                                      ; preds = %.lr.ph.i, %..critedge.loopexit_crit_edge.i, %.lr.ph9.i
  %49 = phi i32 [ %26, %.lr.ph9.i ], [ %.pre.pre.i, %..critedge.loopexit_crit_edge.i ], [ %34, %.lr.ph.i ]
  %.lcssa.i = phi ptr [ %23, %.lr.ph9.i ], [ %43, %..critedge.loopexit_crit_edge.i ], [ %32, %.lr.ph.i ]
  %50 = getelementptr inbounds nuw i8, ptr %.lcssa.i, i64 156
  %51 = and i32 %49, -65
  store i32 %51, ptr %50, align 4
  %52 = and i32 %49, 256
  %.not.i = icmp eq i32 %52, 0
  %53 = load ptr, ptr @MainLWLockArray, align 8
  %54 = getelementptr inbounds nuw i8, ptr %53, i64 3584
  tail call void @LWLockRelease(ptr noundef nonnull %54) #12
  br i1 %.not.i, label %55, label %56

55:                                               ; preds = %.critedge.i
  tail call void @ReleasePredicateLocks(i1 noundef zeroext false, i1 noundef zeroext true)
  br label %GetSafeSnapshot.exit

56:                                               ; preds = %.critedge.i
  %57 = tail call zeroext i1 @errstart(i32 noundef 13, ptr noundef null) #12
  br i1 %57, label %58, label %61

58:                                               ; preds = %56
  %59 = tail call i32 @errcode(i32 noundef 16777220) #12
  %60 = tail call i32 (ptr, ...) @errmsg_internal(ptr noundef nonnull @.str.25) #12
  tail call void @errfinish(ptr noundef nonnull @.str.10, i32 noundef 1595, ptr noundef nonnull @__func__.GetSafeSnapshot) #12
  br label %61

61:                                               ; preds = %58, %56
  tail call void @ReleasePredicateLocks(i1 noundef zeroext false, i1 noundef zeroext false)
  %62 = tail call fastcc ptr @GetSerializableTransactionSnapshotInt(ptr noundef %0, ptr noundef null, i32 noundef -1)
  %63 = load ptr, ptr @MySerializableXact, align 8
  %64 = icmp eq ptr %63, null
  br i1 %64, label %GetSafeSnapshot.exit, label %.lr.ph9.i

65:                                               ; preds = %12, %9
  %66 = tail call fastcc ptr @GetSerializableTransactionSnapshotInt(ptr noundef %0, ptr noundef null, i32 noundef -1)
  br label %GetSafeSnapshot.exit

GetSafeSnapshot.exit:                             ; preds = %61, %55, %15, %65
  %.0 = phi ptr [ %66, %65 ], [ %19, %55 ], [ %16, %15 ], [ %62, %61 ]
  ret ptr %.0
}